; Function Attrs: nounwind uwtable
define ptr @l_Array_foldlMUnsafe_fold___at___private_Lean_Meta_Tactic_Cleanup_0__Lean_Meta_cleanupCore___spec__6(ptr readnone captures(none) %0, ptr noundef %1, ptr noundef readonly captures(none) %2, i64 noundef %3, i64 noundef %4, ptr noundef %5) local_unnamed_addr #0 {
  %.not55 = icmp eq i64 %3, %4
  br i1 %.not55, label %._crit_edge, label %.lr.ph

.lr.ph:                                           ; preds = %6
  %7 = getelementptr inbounds nuw i8, ptr %2, i64 24
  br label %8

8:                                                ; preds = %.lr.ph, %lean_dec.exit31
  %.02657 = phi i64 [ %3, %.lr.ph ], [ %39, %lean_dec.exit31 ]
  %.02856 = phi ptr [ %5, %.lr.ph ], [ %.230, %lean_dec.exit31 ]
  %9 = getelementptr inbounds nuw [0 x ptr], ptr %7, i64 0, i64 %.02657
  %10 = load ptr, ptr %9, align 8, !tbaa !9
  %11 = ptrtoint ptr %10 to i64
  %12 = and i64 %11, 1
  %.not.i40 = icmp eq i64 %12, 0
  br i1 %.not.i40, label %13, label %lean_array_uget.exit

13:                                               ; preds = %8
  %.val.i.i = load i32, ptr %10, align 4, !tbaa !4
  %14 = icmp sgt i32 %.val.i.i, 0
  br i1 %14, label %15, label %17, !prof !11

15:                                               ; preds = %13
  %16 = add nuw i32 %.val.i.i, 1
  store i32 %16, ptr %10, align 4, !tbaa !4
  br label %lean_array_uget.exit

17:                                               ; preds = %13
  %.not.i.i = icmp eq i32 %.val.i.i, 0
  br i1 %.not.i.i, label %lean_array_uget.exit, label %18

18:                                               ; preds = %17
  tail call void @lean_inc_ref_cold(ptr noundef nonnull %10) #5
  br label %lean_array_uget.exit

lean_array_uget.exit:                             ; preds = %8, %15, %17, %18
  %19 = getelementptr inbounds nuw i8, ptr %10, i64 16
  %20 = load ptr, ptr %19, align 8, !tbaa !9
  %21 = ptrtoint ptr %20 to i64
  %22 = and i64 %21, 1
  %.not52 = icmp eq i64 %22, 0
  br i1 %.not52, label %23, label %lean_inc.exit

23:                                               ; preds = %lean_array_uget.exit
  %.val.i = load i32, ptr %20, align 4, !tbaa !4
  %24 = icmp sgt i32 %.val.i, 0
  br i1 %24, label %25, label %27, !prof !11

25:                                               ; preds = %23
  %26 = add nuw i32 %.val.i, 1
  store i32 %26, ptr %20, align 4, !tbaa !4
  br label %30

27:                                               ; preds = %23
  %.not.i41 = icmp eq i32 %.val.i, 0
  br i1 %.not.i41, label %30, label %28

28:                                               ; preds = %27
  tail call void @lean_inc_ref_cold(ptr noundef nonnull %20) #5
  br label %30

lean_inc.exit:                                    ; preds = %lean_array_uget.exit
  %29 = tail call ptr @l_Lean_Expr_fvarId_x21(ptr noundef %20) #5
  br label %lean_dec.exit33

30:                                               ; preds = %28, %27, %25
  %31 = tail call ptr @l_Lean_Expr_fvarId_x21(ptr noundef nonnull %20) #5
  %32 = load i32, ptr %20, align 4, !tbaa !4
  %33 = icmp sgt i32 %32, 1
  br i1 %33, label %34, label %36, !prof !11

34:                                               ; preds = %30
  %35 = add nsw i32 %32, -1
  store i32 %35, ptr %20, align 4, !tbaa !4
  br label %lean_dec.exit33

36:                                               ; preds = %30
  %.not.i = icmp eq i32 %32, 0
  br i1 %.not.i, label %lean_dec.exit33, label %37

37:                                               ; preds = %36
  tail call void @lean_dec_ref_cold(ptr noundef nonnull %20) #5
  br label %lean_dec.exit33

lean_dec.exit33:                                  ; preds = %37, %36, %34, %lean_inc.exit
  %38 = phi ptr [ %29, %lean_inc.exit ], [ %31, %34 ], [ %31, %36 ], [ %31, %37 ]
  %39 = add i64 %.02657, 1
  %40 = tail call ptr @l_Lean_RBNode_findCore___at___private_Lean_Meta_FunInfo_0__Lean_Meta_getFunInfoAux___spec__2(ptr noundef %1, ptr noundef %38) #5
  %41 = ptrtoint ptr %38 to i64
  %42 = and i64 %41, 1
  %.not53 = icmp eq i64 %42, 0
  br i1 %.not53, label %43, label %lean_dec.exit32

43:                                               ; preds = %lean_dec.exit33
  %44 = load i32, ptr %38, align 4, !tbaa !4
  %45 = icmp sgt i32 %44, 1
  br i1 %45, label %46, label %48, !prof !11

46:                                               ; preds = %43
  %47 = add nsw i32 %44, -1
  store i32 %47, ptr %38, align 4, !tbaa !4
  br label %lean_dec.exit32

48:                                               ; preds = %43
  %.not.i34 = icmp eq i32 %44, 0
  br i1 %.not.i34, label %lean_dec.exit32, label %49

49:                                               ; preds = %48
  tail call void @lean_dec_ref_cold(ptr noundef nonnull %38) #5
  br label %lean_dec.exit32

lean_dec.exit32:                                  ; preds = %49, %48, %46, %lean_dec.exit33
  %50 = ptrtoint ptr %40 to i64
  %51 = and i64 %50, 1
  %.not.i42 = icmp eq i64 %51, 0
  br i1 %.not.i42, label %lean_obj_tag.exit.thread, label %lean_obj_tag.exit

lean_obj_tag.exit:                                ; preds = %lean_dec.exit32
  %52 = and i64 %50, 8589934590
  %53 = icmp eq i64 %52, 0
  br i1 %53, label %56, label %lean_dec.exit

lean_obj_tag.exit.thread:                         ; preds = %lean_dec.exit32
  %54 = getelementptr i8, ptr %40, i64 4
  %.val.i43 = load i32, ptr %54, align 4
  %55 = icmp ult i32 %.val.i43, 16777216
  br i1 %55, label %56, label %.thread

56:                                               ; preds = %lean_obj_tag.exit.thread, %lean_obj_tag.exit
  br i1 %.not.i40, label %57, label %lean_dec.exit31

57:                                               ; preds = %56
  %58 = load i32, ptr %10, align 4, !tbaa !4
  %59 = icmp sgt i32 %58, 1
  br i1 %59, label %60, label %62, !prof !11

60:                                               ; preds = %57
  %61 = add nsw i32 %58, -1
  store i32 %61, ptr %10, align 4, !tbaa !4
  br label %lean_dec.exit31

62:                                               ; preds = %57
  %.not.i36 = icmp eq i32 %58, 0
  br i1 %.not.i36, label %lean_dec.exit31, label %63

63:                                               ; preds = %62
  tail call void @lean_dec_ref_cold(ptr noundef nonnull %10) #5
  br label %lean_dec.exit31

.thread:                                          ; preds = %lean_obj_tag.exit.thread
  %64 = load i32, ptr %40, align 4, !tbaa !4
  %65 = icmp sgt i32 %64, 1
  br i1 %65, label %66, label %68, !prof !11

66:                                               ; preds = %.thread
  %67 = add nsw i32 %64, -1
  store i32 %67, ptr %40, align 4, !tbaa !4
  br label %lean_dec.exit

68:                                               ; preds = %.thread
  %.not.i38 = icmp eq i32 %64, 0
  br i1 %.not.i38, label %lean_dec.exit, label %69

69:                                               ; preds = %68
  tail call void @lean_dec_ref_cold(ptr noundef nonnull %40) #5
  br label %lean_dec.exit

lean_dec.exit:                                    ; preds = %lean_obj_tag.exit, %69, %68, %66
  %70 = tail call ptr @lean_array_push(ptr noundef %.02856, ptr noundef nonnull %10) #5
  br label %lean_dec.exit31

lean_dec.exit31:                                  ; preds = %56, %60, %62, %63, %lean_dec.exit
  %.230 = phi ptr [ %70, %lean_dec.exit ], [ %.02856, %63 ], [ %.02856, %62 ], [ %.02856, %60 ], [ %.02856, %56 ]
  %.not = icmp eq i64 %39, %4
  br i1 %.not, label %._crit_edge, label %8

._crit_edge:                                      ; preds = %lean_dec.exit31, %6
  %.028.lcssa = phi ptr [ %5, %6 ], [ %.230, %lean_dec.exit31 ]
  ret ptr %.028.lcssa
}